target datalayout = "e-m:e-p270:32:32-p271:32:32-p272:64:64-i64:64-i128:128-f80:128-n8:16:32:64-S128"
target triple = "x86_64-pc-linux-gnu"

%struct.OutputFilter = type { ptr, ptr, ptr, i32, ptr, ptr, i32, i64, i64 }
%struct.AVRational = type { i32, i32 }
%struct.AVChannelLayout = type { i32, i32, %union.anon, ptr }
%union.anon = type { i64 }
%struct.OutputFilterPriv = type { %struct.OutputFilter, i32, ptr, [32 x i8], ptr, ptr, i32, i32, i32, i32, %struct.AVChannelLayout, i32, i32, ptr, i32, %struct.AVRational, i32, %struct.AVRational, ptr, ptr, ptr, ptr, ptr, ptr, ptr, %struct.AVRational, i64, i64, i64, i64, %struct.FPSConvContext, i32 }
%struct.FPSConvContext = type { ptr, i64, [3 x i64], i64, i32, i32, i32, %struct.AVRational, %struct.AVRational, ptr, i32 }
%struct.FilterGraphPriv = type { %struct.FilterGraph, [32 x i8], i32, i32, i32, i32, i32, ptr, i32, ptr, ptr, ptr, i32, %struct.AVBPrint }
%struct.FilterGraph = type { ptr, i32, ptr, i32, ptr, i32 }
%struct.AVBPrint = type { ptr, i32, i32, i32, [1 x i8], [1000 x i8] }
%struct.InputFilterPriv = type { %struct.InputFilter, %struct.InputFilterOptions, i32, ptr, ptr, ptr, i32, i32, i32, i32, i32, i64, i32, i32, i32, %struct.AVRational, i32, i32, i32, %struct.AVChannelLayout, %struct.AVRational, ptr, i32, ptr, ptr, i32, i32, [9 x i32], i32, %struct.AVDownmixInfo, %struct.anon }
%struct.InputFilter = type { ptr, ptr }
%struct.InputFilterOptions = type { i64, i64, ptr, %struct.AVRational, i32, i32, i32, i32, i32, i32, i32, ptr }
%struct.AVDownmixInfo = type { i32, double, double, double, double, double }
%struct.anon = type { ptr, i64, i64, i32 }

; Function Attrs: inlinehint nounwind uwtable
define internal ptr @ofp_from_ofilter(ptr noundef %0) #2 {
  %2 = alloca ptr, align 8
  store ptr %0, ptr %2, align 8, !tbaa !4
  %3 = load ptr, ptr %2, align 8, !tbaa !4
  ret ptr %3
}

; Function Attrs: inlinehint nounwind uwtable
define internal ptr @ifp_from_ifilter(ptr noundef %0) #2 {
  %2 = alloca ptr, align 8
  store ptr %0, ptr %2, align 8, !tbaa !114
  %3 = load ptr, ptr %2, align 8, !tbaa !114
  ret ptr %3
}

; Function Attrs: inlinehint nounwind uwtable
define internal ptr @fgp_from_fg(ptr noundef %0) #2 {
  %2 = alloca ptr, align 8
  store ptr %0, ptr %2, align 8, !tbaa !20
  %3 = load ptr, ptr %2, align 8, !tbaa !20
  ret ptr %3
}

; Function Attrs: nounwind uwtable
define void @fg_free(ptr noundef %0) #0 {
  %2 = alloca ptr, align 8
  %3 = alloca ptr, align 8
  %4 = alloca ptr, align 8
  %5 = alloca i32, align 4
  %6 = alloca i32, align 4
  %7 = alloca ptr, align 8
  %8 = alloca ptr, align 8
  %9 = alloca ptr, align 8
  %10 = alloca i32, align 4
  %11 = alloca ptr, align 8
  %12 = alloca ptr, align 8
  store ptr %0, ptr %2, align 8, !tbaa !110
  call void @llvm.lifetime.start.p0(i64 8, ptr %3) #14
  %13 = load ptr, ptr %2, align 8, !tbaa !110
  %14 = load ptr, ptr %13, align 8, !tbaa !20
  store ptr %14, ptr %3, align 8, !tbaa !20
  call void @llvm.lifetime.start.p0(i64 8, ptr %4) #14
  %15 = load ptr, ptr %3, align 8, !tbaa !20
  %16 = icmp ne ptr %15, null
  br i1 %16, label %18, label %17

17:                                               ; preds = %1
  store i32 1, ptr %5, align 4
  br label %144

18:                                               ; preds = %1
  %19 = load ptr, ptr %3, align 8, !tbaa !20
  %20 = call ptr @fgp_from_fg(ptr noundef %19)
  store ptr %20, ptr %4, align 8, !tbaa !21
  call void @llvm.lifetime.start.p0(i64 4, ptr %6) #14
  store i32 0, ptr %6, align 4, !tbaa !9
  br label %21

21:                                               ; preds = %81, %18
  %22 = load i32, ptr %6, align 4, !tbaa !9
  %23 = load ptr, ptr %3, align 8, !tbaa !20
  %24 = getelementptr inbounds nuw %struct.FilterGraph, ptr %23, i32 0, i32 3
  %25 = load i32, ptr %24, align 8, !tbaa !112
  %26 = icmp slt i32 %22, %25
  br i1 %26, label %28, label %27

27:                                               ; preds = %21
  store i32 2, ptr %5, align 4
  call void @llvm.lifetime.end.p0(i64 4, ptr %6) #14
  br label %84

28:                                               ; preds = %21
  call void @llvm.lifetime.start.p0(i64 8, ptr %7) #14
  %29 = load ptr, ptr %3, align 8, !tbaa !20
  %30 = getelementptr inbounds nuw %struct.FilterGraph, ptr %29, i32 0, i32 2
  %31 = load ptr, ptr %30, align 8, !tbaa !113
  %32 = load i32, ptr %6, align 4, !tbaa !9
  %33 = sext i32 %32 to i64
  %34 = getelementptr inbounds ptr, ptr %31, i64 %33
  %35 = load ptr, ptr %34, align 8, !tbaa !114
  store ptr %35, ptr %7, align 8, !tbaa !114
  call void @llvm.lifetime.start.p0(i64 8, ptr %8) #14
  %36 = load ptr, ptr %7, align 8, !tbaa !114
  %37 = call ptr @ifp_from_ifilter(ptr noundef %36)
  store ptr %37, ptr %8, align 8, !tbaa !116
  %38 = load ptr, ptr %8, align 8, !tbaa !116
  %39 = getelementptr inbounds nuw %struct.InputFilterPriv, ptr %38, i32 0, i32 23
  %40 = load ptr, ptr %39, align 8, !tbaa !118
  %41 = icmp ne ptr %40, null
  br i1 %41, label %42, label %53

42:                                               ; preds = %28
  call void @llvm.lifetime.start.p0(i64 8, ptr %9) #14
  br label %43

43:                                               ; preds = %49, %42
  %44 = load ptr, ptr %8, align 8, !tbaa !116
  %45 = getelementptr inbounds nuw %struct.InputFilterPriv, ptr %44, i32 0, i32 23
  %46 = load ptr, ptr %45, align 8, !tbaa !118
  %47 = call i32 @av_fifo_read(ptr noundef %46, ptr noundef %9, i64 noundef 1)
  %48 = icmp sge i32 %47, 0
  br i1 %48, label %49, label %50

49:                                               ; preds = %43
  call void @av_frame_free(ptr noundef %9)
  br label %43, !llvm.loop !127

50:                                               ; preds = %43
  %51 = load ptr, ptr %8, align 8, !tbaa !116
  %52 = getelementptr inbounds nuw %struct.InputFilterPriv, ptr %51, i32 0, i32 23
  call void @av_fifo_freep2(ptr noundef %52)
  call void @llvm.lifetime.end.p0(i64 8, ptr %9) #14
  br label %53

53:                                               ; preds = %50, %28
  %54 = load ptr, ptr %8, align 8, !tbaa !116
  %55 = getelementptr inbounds nuw %struct.InputFilterPriv, ptr %54, i32 0, i32 30
  %56 = getelementptr inbounds nuw %struct.anon, ptr %55, i32 0, i32 0
  call void @av_frame_free(ptr noundef %56)
  %57 = load ptr, ptr %8, align 8, !tbaa !116
  %58 = getelementptr inbounds nuw %struct.InputFilterPriv, ptr %57, i32 0, i32 4
  call void @av_frame_free(ptr noundef %58)
  %59 = load ptr, ptr %8, align 8, !tbaa !116
  %60 = getelementptr inbounds nuw %struct.InputFilterPriv, ptr %59, i32 0, i32 1
  %61 = getelementptr inbounds nuw %struct.InputFilterOptions, ptr %60, i32 0, i32 11
  call void @av_frame_free(ptr noundef %61)
  %62 = load ptr, ptr %8, align 8, !tbaa !116
  %63 = getelementptr inbounds nuw %struct.InputFilterPriv, ptr %62, i32 0, i32 24
  call void @av_buffer_unref(ptr noundef %63)
  %64 = load ptr, ptr %8, align 8, !tbaa !116
  %65 = getelementptr inbounds nuw %struct.InputFilterPriv, ptr %64, i32 0, i32 5
  call void @av_freep(ptr noundef %65)
  %66 = load ptr, ptr %8, align 8, !tbaa !116
  %67 = getelementptr inbounds nuw %struct.InputFilterPriv, ptr %66, i32 0, i32 1
  %68 = getelementptr inbounds nuw %struct.InputFilterOptions, ptr %67, i32 0, i32 2
  call void @av_freep(ptr noundef %68)
  %69 = load ptr, ptr %8, align 8, !tbaa !116
  %70 = getelementptr inbounds nuw %struct.InputFilterPriv, ptr %69, i32 0, i32 21
  %71 = load ptr, ptr %8, align 8, !tbaa !116
  %72 = getelementptr inbounds nuw %struct.InputFilterPriv, ptr %71, i32 0, i32 22
  call void @av_frame_side_data_free(ptr noundef %70, ptr noundef %72)
  %73 = load ptr, ptr %7, align 8, !tbaa !114
  %74 = getelementptr inbounds nuw %struct.InputFilter, ptr %73, i32 0, i32 1
  call void @av_freep(ptr noundef %74)
  %75 = load ptr, ptr %3, align 8, !tbaa !20
  %76 = getelementptr inbounds nuw %struct.FilterGraph, ptr %75, i32 0, i32 2
  %77 = load ptr, ptr %76, align 8, !tbaa !113
  %78 = load i32, ptr %6, align 4, !tbaa !9
  %79 = sext i32 %78 to i64
  %80 = getelementptr inbounds ptr, ptr %77, i64 %79
  call void @av_freep(ptr noundef %80)
  call void @llvm.lifetime.end.p0(i64 8, ptr %8) #14
  call void @llvm.lifetime.end.p0(i64 8, ptr %7) #14
  br label %81

81:                                               ; preds = %53
  %82 = load i32, ptr %6, align 4, !tbaa !9
  %83 = add nsw i32 %82, 1
  store i32 %83, ptr %6, align 4, !tbaa !9
  br label %21, !llvm.loop !128

84:                                               ; preds = %27
  %85 = load ptr, ptr %3, align 8, !tbaa !20
  %86 = getelementptr inbounds nuw %struct.FilterGraph, ptr %85, i32 0, i32 2
  call void @av_freep(ptr noundef %86)
  call void @llvm.lifetime.start.p0(i64 4, ptr %10) #14
  store i32 0, ptr %10, align 4, !tbaa !9
  br label %87

87:                                               ; preds = %131, %84
  %88 = load i32, ptr %10, align 4, !tbaa !9
  %89 = load ptr, ptr %3, align 8, !tbaa !20
  %90 = getelementptr inbounds nuw %struct.FilterGraph, ptr %89, i32 0, i32 5
  %91 = load i32, ptr %90, align 8, !tbaa !129
  %92 = icmp slt i32 %88, %91
  br i1 %92, label %94, label %93

93:                                               ; preds = %87
  store i32 7, ptr %5, align 4
  call void @llvm.lifetime.end.p0(i64 4, ptr %10) #14
  br label %134

94:                                               ; preds = %87
  call void @llvm.lifetime.start.p0(i64 8, ptr %11) #14
  %95 = load ptr, ptr %3, align 8, !tbaa !20
  %96 = getelementptr inbounds nuw %struct.FilterGraph, ptr %95, i32 0, i32 4
  %97 = load ptr, ptr %96, align 8, !tbaa !130
  %98 = load i32, ptr %10, align 4, !tbaa !9
  %99 = sext i32 %98 to i64
  %100 = getelementptr inbounds ptr, ptr %97, i64 %99
  %101 = load ptr, ptr %100, align 8, !tbaa !4
  store ptr %101, ptr %11, align 8, !tbaa !4
  call void @llvm.lifetime.start.p0(i64 8, ptr %12) #14
  %102 = load ptr, ptr %11, align 8, !tbaa !4
  %103 = call ptr @ofp_from_ofilter(ptr noundef %102)
  store ptr %103, ptr %12, align 8, !tbaa !13
  %104 = load ptr, ptr %12, align 8, !tbaa !13
  %105 = getelementptr inbounds nuw %struct.OutputFilterPriv, ptr %104, i32 0, i32 30
  %106 = getelementptr inbounds nuw %struct.FPSConvContext, ptr %105, i32 0, i32 0
  call void @av_frame_free(ptr noundef %106)
  %107 = load ptr, ptr %12, align 8, !tbaa !13
  %108 = getelementptr inbounds nuw %struct.OutputFilterPriv, ptr %107, i32 0, i32 18
  call void @av_dict_free(ptr noundef %108)
  %109 = load ptr, ptr %12, align 8, !tbaa !13
  %110 = getelementptr inbounds nuw %struct.OutputFilterPriv, ptr %109, i32 0, i32 19
  call void @av_dict_free(ptr noundef %110)
  %111 = load ptr, ptr %11, align 8, !tbaa !4
  %112 = getelementptr inbounds nuw %struct.OutputFilter, ptr %111, i32 0, i32 4
  call void @av_freep(ptr noundef %112)
  %113 = load ptr, ptr %11, align 8, !tbaa !4
  %114 = getelementptr inbounds nuw %struct.OutputFilter, ptr %113, i32 0, i32 2
  call void @av_freep(ptr noundef %114)
  %115 = load ptr, ptr %11, align 8, !tbaa !4
  %116 = getelementptr inbounds nuw %struct.OutputFilter, ptr %115, i32 0, i32 5
  call void @av_freep(ptr noundef %116)
  %117 = load ptr, ptr %12, align 8, !tbaa !13
  %118 = getelementptr inbounds nuw %struct.OutputFilterPriv, ptr %117, i32 0, i32 4
  call void @av_freep(ptr noundef %118)
  %119 = load ptr, ptr %12, align 8, !tbaa !13
  %120 = getelementptr inbounds nuw %struct.OutputFilterPriv, ptr %119, i32 0, i32 10
  call void @av_channel_layout_uninit(ptr noundef %120)
  %121 = load ptr, ptr %12, align 8, !tbaa !13
  %122 = getelementptr inbounds nuw %struct.OutputFilterPriv, ptr %121, i32 0, i32 13
  %123 = load ptr, ptr %12, align 8, !tbaa !13
  %124 = getelementptr inbounds nuw %struct.OutputFilterPriv, ptr %123, i32 0, i32 14
  call void @av_frame_side_data_free(ptr noundef %122, ptr noundef %124)
  %125 = load ptr, ptr %3, align 8, !tbaa !20
  %126 = getelementptr inbounds nuw %struct.FilterGraph, ptr %125, i32 0, i32 4
  %127 = load ptr, ptr %126, align 8, !tbaa !130
  %128 = load i32, ptr %10, align 4, !tbaa !9
  %129 = sext i32 %128 to i64
  %130 = getelementptr inbounds ptr, ptr %127, i64 %129
  call void @av_freep(ptr noundef %130)
  call void @llvm.lifetime.end.p0(i64 8, ptr %12) #14
  call void @llvm.lifetime.end.p0(i64 8, ptr %11) #14
  br label %131

131:                                              ; preds = %94
  %132 = load i32, ptr %10, align 4, !tbaa !9
  %133 = add nsw i32 %132, 1
  store i32 %133, ptr %10, align 4, !tbaa !9
  br label %87, !llvm.loop !131

134:                                              ; preds = %93
  %135 = load ptr, ptr %3, align 8, !tbaa !20
  %136 = getelementptr inbounds nuw %struct.FilterGraph, ptr %135, i32 0, i32 4
  call void @av_freep(ptr noundef %136)
  %137 = load ptr, ptr %4, align 8, !tbaa !21
  %138 = getelementptr inbounds nuw %struct.FilterGraphPriv, ptr %137, i32 0, i32 7
  call void @av_freep(ptr noundef %138)
  %139 = load ptr, ptr %4, align 8, !tbaa !21
  %140 = getelementptr inbounds nuw %struct.FilterGraphPriv, ptr %139, i32 0, i32 9
  call void @av_frame_free(ptr noundef %140)
  %141 = load ptr, ptr %4, align 8, !tbaa !21
  %142 = getelementptr inbounds nuw %struct.FilterGraphPriv, ptr %141, i32 0, i32 10
  call void @av_frame_free(ptr noundef %142)
  %143 = load ptr, ptr %2, align 8, !tbaa !110
  call void @av_freep(ptr noundef %143)
  store i32 0, ptr %5, align 4
  br label %144

144:                                              ; preds = %134, %17
  call void @llvm.lifetime.end.p0(i64 8, ptr %4) #14
  call void @llvm.lifetime.end.p0(i64 8, ptr %3) #14
  %145 = load i32, ptr %5, align 4
  switch i32 %145, label %147 [
    i32 0, label %146
    i32 1, label %146
  ]

146:                                              ; preds = %144, %144
  ret void

147:                                              ; preds = %144
  unreachable
}