; Function Attrs: nounwind uwtable
define void @fg_free(ptr noundef %0) local_unnamed_addr #0 {
  %2 = alloca ptr, align 8
  %3 = load ptr, ptr %0, align 8, !tbaa !94
  %.not = icmp eq ptr %3, null
  br i1 %.not, label %63, label %.preheader

.preheader:                                       ; preds = %1
  %4 = getelementptr inbounds nuw i8, ptr %3, i64 24
  %5 = load i32, ptr %4, align 8, !tbaa !95
  %6 = icmp sgt i32 %5, 0
  br i1 %6, label %.lr.ph50, label %._crit_edge51

.lr.ph50:                                         ; preds = %.preheader
  %7 = getelementptr inbounds nuw i8, ptr %3, i64 16
  br label %13

._crit_edge51:                                    ; preds = %25, %.preheader
  %8 = getelementptr inbounds nuw i8, ptr %3, i64 16
  call void @av_freep(ptr noundef nonnull %8) #17
  %9 = getelementptr inbounds nuw i8, ptr %3, i64 40
  %10 = load i32, ptr %9, align 8, !tbaa !96
  %11 = icmp sgt i32 %10, 0
  br i1 %11, label %.lr.ph54, label %._crit_edge55

.lr.ph54:                                         ; preds = %._crit_edge51
  %12 = getelementptr inbounds nuw i8, ptr %3, i64 32
  br label %44

13:                                               ; preds = %.lr.ph50, %25
  %indvars.iv = phi i64 [ 0, %.lr.ph50 ], [ %indvars.iv.next, %25 ]
  %14 = load ptr, ptr %7, align 8, !tbaa !97
  %15 = getelementptr inbounds nuw ptr, ptr %14, i64 %indvars.iv
  %16 = load ptr, ptr %15, align 8, !tbaa !98
  %17 = getelementptr inbounds nuw i8, ptr %16, i64 232
  %18 = load ptr, ptr %17, align 8, !tbaa !100
  %.not48 = icmp eq ptr %18, null
  br i1 %.not48, label %25, label %19

19:                                               ; preds = %13
  call void @llvm.lifetime.start.p0(i64 8, ptr nonnull %2) #17
  %20 = call i32 @av_fifo_read(ptr noundef nonnull %18, ptr noundef nonnull %2, i64 noundef 1) #17
  %21 = icmp sgt i32 %20, -1
  br i1 %21, label %.lr.ph, label %._crit_edge

.lr.ph:                                           ; preds = %19, %.lr.ph
  call void @av_frame_free(ptr noundef nonnull %2) #17
  %22 = load ptr, ptr %17, align 8, !tbaa !100
  %23 = call i32 @av_fifo_read(ptr noundef %22, ptr noundef nonnull %2, i64 noundef 1) #17
  %24 = icmp sgt i32 %23, -1
  br i1 %24, label %.lr.ph, label %._crit_edge, !llvm.loop !109

._crit_edge:                                      ; preds = %.lr.ph, %19
  call void @av_fifo_freep2(ptr noundef nonnull %17) #17
  call void @llvm.lifetime.end.p0(i64 8, ptr nonnull %2) #17
  br label %25

25:                                               ; preds = %._crit_edge, %13
  %26 = getelementptr inbounds nuw i8, ptr %16, i64 344
  call void @av_frame_free(ptr noundef nonnull %26) #17
  %27 = getelementptr inbounds nuw i8, ptr %16, i64 104
  call void @av_frame_free(ptr noundef nonnull %27) #17
  %28 = getelementptr inbounds nuw i8, ptr %16, i64 80
  call void @av_frame_free(ptr noundef nonnull %28) #17
  %29 = getelementptr inbounds nuw i8, ptr %16, i64 240
  call void @av_buffer_unref(ptr noundef nonnull %29) #17
  %30 = getelementptr inbounds nuw i8, ptr %16, i64 112
  call void @av_freep(ptr noundef nonnull %30) #17
  %31 = getelementptr inbounds nuw i8, ptr %16, i64 32
  call void @av_freep(ptr noundef nonnull %31) #17
  %32 = getelementptr inbounds nuw i8, ptr %16, i64 216
  %33 = getelementptr inbounds nuw i8, ptr %16, i64 224
  call void @av_frame_side_data_free(ptr noundef nonnull %32, ptr noundef nonnull %33) #17
  %34 = getelementptr inbounds nuw i8, ptr %16, i64 8
  call void @av_freep(ptr noundef nonnull %34) #17
  %35 = load ptr, ptr %7, align 8, !tbaa !97
  %36 = getelementptr inbounds nuw ptr, ptr %35, i64 %indvars.iv
  call void @av_freep(ptr noundef %36) #17
  %indvars.iv.next = add nuw nsw i64 %indvars.iv, 1
  %37 = load i32, ptr %4, align 8, !tbaa !95
  %38 = sext i32 %37 to i64
  %39 = icmp slt i64 %indvars.iv.next, %38
  br i1 %39, label %13, label %._crit_edge51, !llvm.loop !110

._crit_edge55:                                    ; preds = %44, %._crit_edge51
  %40 = getelementptr inbounds nuw i8, ptr %3, i64 32
  call void @av_freep(ptr noundef nonnull %40) #17
  %41 = getelementptr inbounds nuw i8, ptr %3, i64 104
  call void @av_freep(ptr noundef nonnull %41) #17
  %42 = getelementptr inbounds nuw i8, ptr %3, i64 120
  call void @av_frame_free(ptr noundef nonnull %42) #17
  %43 = getelementptr inbounds nuw i8, ptr %3, i64 128
  call void @av_frame_free(ptr noundef nonnull %43) #17
  call void @av_freep(ptr noundef nonnull %0) #17
  br label %63

44:                                               ; preds = %.lr.ph54, %44
  %indvars.iv57 = phi i64 [ 0, %.lr.ph54 ], [ %indvars.iv.next58, %44 ]
  %45 = load ptr, ptr %12, align 8, !tbaa !111
  %46 = getelementptr inbounds nuw ptr, ptr %45, i64 %indvars.iv57
  %47 = load ptr, ptr %46, align 8, !tbaa !112
  %48 = getelementptr inbounds nuw i8, ptr %47, i64 312
  call void @av_frame_free(ptr noundef nonnull %48) #17
  %49 = getelementptr inbounds nuw i8, ptr %47, i64 216
  call void @av_dict_free(ptr noundef nonnull %49) #17
  %50 = getelementptr inbounds nuw i8, ptr %47, i64 224
  call void @av_dict_free(ptr noundef nonnull %50) #17
  %51 = getelementptr inbounds nuw i8, ptr %47, i64 32
  call void @av_freep(ptr noundef nonnull %51) #17
  %52 = getelementptr inbounds nuw i8, ptr %47, i64 16
  call void @av_freep(ptr noundef nonnull %52) #17
  %53 = getelementptr inbounds nuw i8, ptr %47, i64 40
  call void @av_freep(ptr noundef nonnull %53) #17
  %54 = getelementptr inbounds nuw i8, ptr %47, i64 120
  call void @av_freep(ptr noundef nonnull %54) #17
  %55 = getelementptr inbounds nuw i8, ptr %47, i64 152
  call void @av_channel_layout_uninit(ptr noundef nonnull %55) #17
  %56 = getelementptr inbounds nuw i8, ptr %47, i64 184
  %57 = getelementptr inbounds nuw i8, ptr %47, i64 192
  call void @av_frame_side_data_free(ptr noundef nonnull %56, ptr noundef nonnull %57) #17
  %58 = load ptr, ptr %12, align 8, !tbaa !111
  %59 = getelementptr inbounds nuw ptr, ptr %58, i64 %indvars.iv57
  call void @av_freep(ptr noundef %59) #17
  %indvars.iv.next58 = add nuw nsw i64 %indvars.iv57, 1
  %60 = load i32, ptr %9, align 8, !tbaa !96
  %61 = sext i32 %60 to i64
  %62 = icmp slt i64 %indvars.iv.next58, %61
  br i1 %62, label %44, label %._crit_edge55, !llvm.loop !114

63:                                               ; preds = %1, %._crit_edge55
  ret void
}